target datalayout = "e-m:e-p270:32:32-p271:32:32-p272:64:64-i64:64-i128:128-f80:128-n8:16:32:64-S128"
target triple = "x86_64-pc-linux-gnu"

@.str.1 = private unnamed_addr constant [63 x i8] c"../openssl/providers/implementations/ciphers/cipher_chacha20.c\00", align 1

; Function Attrs: nounwind uwtable
define void @ossl_chacha20_initctx(ptr noundef %0) #0 {
  %2 = alloca ptr, align 8
  store ptr %0, ptr %2, align 8, !tbaa !3
  %3 = load ptr, ptr %2, align 8, !tbaa !3
  %4 = call ptr @ossl_prov_cipher_hw_chacha20(i64 noundef 256)
  call void @ossl_cipher_generic_initkey(ptr noundef %3, i64 noundef 256, i64 noundef 8, i64 noundef 128, i32 noundef 0, i64 noundef 2, ptr noundef %4, ptr noundef null)
  ret void
}

; Function Attrs: nounwind uwtable
define internal ptr @chacha20_newctx(ptr noundef %0) #0 {
  %2 = alloca ptr, align 8
  %3 = alloca ptr, align 8
  %4 = alloca ptr, align 8
  %5 = alloca i32, align 4
  store ptr %0, ptr %3, align 8, !tbaa !3
  call void @llvm.lifetime.start.p0(i64 8, ptr %4) #4
  %6 = call i32 @ossl_prov_is_running()
  %7 = icmp ne i32 %6, 0
  br i1 %7, label %9, label %8

8:                                                ; preds = %1
  store ptr null, ptr %2, align 8
  store i32 1, ptr %5, align 4
  br label %17

9:                                                ; preds = %1
  %10 = call noalias ptr @CRYPTO_zalloc(i64 noundef 312, ptr noundef @.str.1, i32 noundef 52)
  store ptr %10, ptr %4, align 8, !tbaa !3
  %11 = load ptr, ptr %4, align 8, !tbaa !3
  %12 = icmp ne ptr %11, null
  br i1 %12, label %13, label %15

13:                                               ; preds = %9
  %14 = load ptr, ptr %4, align 8, !tbaa !3
  call void @ossl_chacha20_initctx(ptr noundef %14)
  br label %15

15:                                               ; preds = %13, %9
  %16 = load ptr, ptr %4, align 8, !tbaa !3
  store ptr %16, ptr %2, align 8
  store i32 1, ptr %5, align 4
  br label %17

17:                                               ; preds = %15, %8
  call void @llvm.lifetime.end.p0(i64 8, ptr %4) #4
  %18 = load ptr, ptr %2, align 8
  ret ptr %18
}